; Function Attrs: nounwind uwtable
define range(i32 0, 2) i32 @OCSP_RESPID_set_by_key_ex(ptr noundef writeonly captures(none) %0, ptr noundef %1, ptr noundef %2, ptr noundef %3) local_unnamed_addr #0 {
  %5 = alloca [20 x i8], align 16
  call void @llvm.lifetime.start.p0(i64 20, ptr nonnull %5) #6
  %6 = tail call ptr @EVP_MD_fetch(ptr noundef %2, ptr noundef nonnull @.str.1, ptr noundef %3) #6
  %7 = icmp eq ptr %6, null
  br i1 %7, label %19, label %8

8:                                                ; preds = %4
  %9 = call i32 @X509_pubkey_digest(ptr noundef %1, ptr noundef nonnull %6, ptr noundef nonnull %5, ptr noundef null) #6
  %.not = icmp eq i32 %9, 0
  br i1 %.not, label %18, label %10

10:                                               ; preds = %8
  %11 = call ptr @ASN1_OCTET_STRING_new() #6
  %12 = icmp eq ptr %11, null
  br i1 %12, label %18, label %13

13:                                               ; preds = %10
  %14 = call i32 @ASN1_OCTET_STRING_set(ptr noundef nonnull %11, ptr noundef nonnull %5, i32 noundef 20) #6
  %.not16 = icmp eq i32 %14, 0
  br i1 %.not16, label %15, label %16

15:                                               ; preds = %13
  call void @ASN1_OCTET_STRING_free(ptr noundef nonnull %11) #6
  br label %18

16:                                               ; preds = %13
  store i32 1, ptr %0, align 8, !tbaa !51
  %17 = getelementptr inbounds nuw i8, ptr %0, i64 8
  store ptr %11, ptr %17, align 8, !tbaa !47
  br label %18

18:                                               ; preds = %10, %8, %16, %15
  %.0 = phi i32 [ 0, %10 ], [ 1, %16 ], [ 0, %15 ], [ 0, %8 ]
  call void @EVP_MD_free(ptr noundef nonnull %6) #6
  br label %19

19:                                               ; preds = %4, %18
  %.013 = phi i32 [ %.0, %18 ], [ 0, %4 ]
  call void @llvm.lifetime.end.p0(i64 20, ptr nonnull %5) #6
  ret i32 %.013
}